target datalayout = "e-m:e-p270:32:32-p271:32:32-p272:64:64-i64:64-i128:128-f80:128-n8:16:32:64-S128"
target triple = "x86_64-pc-linux-gnu"

%"class.arrow::Status" = type { ptr }
%"class.std::__cxx11::basic_string" = type { %"struct.std::__cxx11::basic_string<char>::_Alloc_hider", i64, %union.anon }
%"struct.std::__cxx11::basic_string<char>::_Alloc_hider" = type { ptr }
%union.anon = type { i64, [8 x i8] }

@_ZN5arrow11memory_pool8internal14zero_size_areaE = global [1 x i64] [i64 -1738363128204640648], align 64
@.str.43 = private unnamed_addr constant [8 x i8] c" failed\00", align 1
@.str.55 = private unnamed_addr constant [17 x i8] c"realloc of size \00", align 1

; Function Attrs: mustprogress nounwind uwtable
define linkonce_odr void @_ZNSt15__new_allocatorIcE10deallocateEPcm(ptr noundef nonnull align 1 dereferenceable(1) %0, ptr noundef %1, i64 noundef %2) #4 comdat align 2 {
  %4 = alloca ptr, align 8
  %5 = alloca ptr, align 8
  %6 = alloca i64, align 8
  store ptr %0, ptr %4, align 8, !tbaa !144
  store ptr %1, ptr %5, align 8, !tbaa !10
  store i64 %2, ptr %6, align 8, !tbaa !68
  %7 = load ptr, ptr %5, align 8, !tbaa !10
  %8 = load i64, ptr %6, align 8, !tbaa !68
  %9 = mul i64 %8, 1
  call void @_ZdlPvm(ptr noundef %7, i64 noundef %9) #24
  ret void
}

; Function Attrs: mustprogress nounwind uwtable
define linkonce_odr noundef ptr @_ZNSt19__ptr_traits_ptr_toIPKcS0_Lb0EE10pointer_toERS0_(ptr noundef nonnull align 1 dereferenceable(1) %0) #4 comdat align 2 {
  %2 = alloca ptr, align 8
  store ptr %0, ptr %2, align 8, !tbaa !10
  %3 = load ptr, ptr %2, align 8, !tbaa !10
  ret ptr %3
}

; Function Attrs: mustprogress uwtable
define linkonce_odr void @_ZNSt16allocator_traitsISaIcEE10deallocateERS0_Pcm(ptr noundef nonnull align 1 dereferenceable(1) %0, ptr noundef %1, i64 noundef %2) #5 comdat align 2 {
  %4 = alloca ptr, align 8
  %5 = alloca ptr, align 8
  %6 = alloca i64, align 8
  store ptr %0, ptr %4, align 8, !tbaa !104
  store ptr %1, ptr %5, align 8, !tbaa !10
  store i64 %2, ptr %6, align 8, !tbaa !68
  %7 = load ptr, ptr %4, align 8, !tbaa !104
  %8 = load ptr, ptr %5, align 8, !tbaa !10
  %9 = load i64, ptr %6, align 8, !tbaa !68
  call void @_ZNSt15__new_allocatorIcE10deallocateEPcm(ptr noundef nonnull align 1 dereferenceable(1) %7, ptr noundef %8, i64 noundef %9)
  ret void
}

; Function Attrs: mustprogress nounwind uwtable
define available_externally noundef nonnull align 1 dereferenceable(1) ptr @_ZNSt7__cxx1112basic_stringIcSt11char_traitsIcESaIcEE16_M_get_allocatorEv(ptr noundef nonnull align 8 dereferenceable(32) %0) #4 align 2 {
  %2 = alloca ptr, align 8
  store ptr %0, ptr %2, align 8, !tbaa !102
  %3 = load ptr, ptr %2, align 8
  %4 = getelementptr inbounds nuw %"class.std::__cxx11::basic_string", ptr %3, i32 0, i32 0
  ret ptr %4
}

; Function Attrs: mustprogress nounwind uwtable
define available_externally noundef ptr @_ZNKSt7__cxx1112basic_stringIcSt11char_traitsIcESaIcEE13_M_local_dataEv(ptr noundef nonnull align 8 dereferenceable(32) %0) #4 align 2 {
  %2 = alloca ptr, align 8
  store ptr %0, ptr %2, align 8, !tbaa !102
  %3 = load ptr, ptr %2, align 8
  %4 = getelementptr inbounds nuw %"class.std::__cxx11::basic_string", ptr %3, i32 0, i32 2
  %5 = getelementptr inbounds [16 x i8], ptr %4, i64 0, i64 0
  %6 = call noundef ptr @_ZNSt19__ptr_traits_ptr_toIPKcS0_Lb0EE10pointer_toERS0_(ptr noundef nonnull align 1 dereferenceable(1) %5) #3
  ret ptr %6
}

; Function Attrs: mustprogress nounwind uwtable
define available_externally noundef ptr @_ZNKSt7__cxx1112basic_stringIcSt11char_traitsIcESaIcEE7_M_dataEv(ptr noundef nonnull align 8 dereferenceable(32) %0) #4 align 2 {
  %2 = alloca ptr, align 8
  store ptr %0, ptr %2, align 8, !tbaa !102
  %3 = load ptr, ptr %2, align 8
  %4 = getelementptr inbounds nuw %"class.std::__cxx11::basic_string", ptr %3, i32 0, i32 0
  %5 = getelementptr inbounds nuw %"struct.std::__cxx11::basic_string<char>::_Alloc_hider", ptr %4, i32 0, i32 0
  %6 = load ptr, ptr %5, align 8, !tbaa !143
  ret ptr %6
}

; Function Attrs: mustprogress nounwind uwtable
define available_externally void @_ZNSt7__cxx1112basic_stringIcSt11char_traitsIcESaIcEE10_M_destroyEm(ptr noundef nonnull align 8 dereferenceable(32) %0, i64 noundef %1) #4 align 2 personality ptr @__gxx_personality_v0 {
  %3 = alloca ptr, align 8
  %4 = alloca i64, align 8
  store ptr %0, ptr %3, align 8, !tbaa !102
  store i64 %1, ptr %4, align 8, !tbaa !68
  %5 = load ptr, ptr %3, align 8
  %6 = call noundef nonnull align 1 dereferenceable(1) ptr @_ZNSt7__cxx1112basic_stringIcSt11char_traitsIcESaIcEE16_M_get_allocatorEv(ptr noundef nonnull align 8 dereferenceable(32) %5)
  %7 = call noundef ptr @_ZNKSt7__cxx1112basic_stringIcSt11char_traitsIcESaIcEE7_M_dataEv(ptr noundef nonnull align 8 dereferenceable(32) %5)
  %8 = load i64, ptr %4, align 8, !tbaa !68
  %9 = add i64 %8, 1
  invoke void @_ZNSt16allocator_traitsISaIcEE10deallocateERS0_Pcm(ptr noundef nonnull align 1 dereferenceable(1) %6, ptr noundef %7, i64 noundef %9)
          to label %10 unwind label %11

10:                                               ; preds = %2
  ret void

11:                                               ; preds = %2
  %12 = landingpad { ptr, i32 }
          catch ptr null
  %13 = extractvalue { ptr, i32 } %12, 0
  call void @__clang_call_terminate(ptr %13) #23
  unreachable
}

; Function Attrs: mustprogress uwtable
define available_externally noundef zeroext i1 @_ZNKSt7__cxx1112basic_stringIcSt11char_traitsIcESaIcEE11_M_is_localEv(ptr noundef nonnull align 8 dereferenceable(32) %0) #5 align 2 {
  %2 = alloca i1, align 1
  %3 = alloca ptr, align 8
  store ptr %0, ptr %3, align 8, !tbaa !102
  %4 = load ptr, ptr %3, align 8
  %5 = call noundef ptr @_ZNKSt7__cxx1112basic_stringIcSt11char_traitsIcESaIcEE7_M_dataEv(ptr noundef nonnull align 8 dereferenceable(32) %4)
  %6 = call noundef ptr @_ZNKSt7__cxx1112basic_stringIcSt11char_traitsIcESaIcEE13_M_local_dataEv(ptr noundef nonnull align 8 dereferenceable(32) %4)
  %7 = icmp eq ptr %5, %6
  br i1 %7, label %8, label %14

8:                                                ; preds = %1
  %9 = getelementptr inbounds nuw %"class.std::__cxx11::basic_string", ptr %4, i32 0, i32 1
  %10 = load i64, ptr %9, align 8, !tbaa !142
  %11 = icmp ugt i64 %10, 15
  br i1 %11, label %12, label %13

12:                                               ; preds = %8
  unreachable

13:                                               ; preds = %8
  store i1 true, ptr %2, align 1
  br label %15

14:                                               ; preds = %1
  store i1 false, ptr %2, align 1
  br label %15

15:                                               ; preds = %14, %13
  %16 = load i1, ptr %2, align 1
  ret i1 %16
}

; Function Attrs: noinline noreturn nounwind uwtable
define linkonce_odr hidden void @__clang_call_terminate(ptr noundef %0) #13 comdat {
  %2 = call ptr @__cxa_begin_catch(ptr %0) #3
  call void @_ZSt9terminatev() #23
  unreachable
}

; Function Attrs: mustprogress nounwind uwtable
define linkonce_odr void @_ZNSt15__new_allocatorIcED2Ev(ptr noundef nonnull align 1 dereferenceable(1) %0) unnamed_addr #4 comdat align 2 {
  %2 = alloca ptr, align 8
  store ptr %0, ptr %2, align 8, !tbaa !144
  ret void
}

; Function Attrs: mustprogress uwtable
define available_externally void @_ZNSt7__cxx1112basic_stringIcSt11char_traitsIcESaIcEE10_M_disposeEv(ptr noundef nonnull align 8 dereferenceable(32) %0) #5 align 2 {
  %2 = alloca ptr, align 8
  store ptr %0, ptr %2, align 8, !tbaa !102
  %3 = load ptr, ptr %2, align 8
  %4 = call noundef zeroext i1 @_ZNKSt7__cxx1112basic_stringIcSt11char_traitsIcESaIcEE11_M_is_localEv(ptr noundef nonnull align 8 dereferenceable(32) %3)
  br i1 %4, label %8, label %5

5:                                                ; preds = %1
  %6 = getelementptr inbounds nuw %"class.std::__cxx11::basic_string", ptr %3, i32 0, i32 2
  %7 = load i64, ptr %6, align 8, !tbaa !8
  call void @_ZNSt7__cxx1112basic_stringIcSt11char_traitsIcESaIcEE10_M_destroyEm(ptr noundef nonnull align 8 dereferenceable(32) %3, i64 noundef %7) #3
  br label %8

8:                                                ; preds = %5, %1
  ret void
}

; Function Attrs: mustprogress nounwind uwtable
define available_externally void @_ZNSt7__cxx1112basic_stringIcSt11char_traitsIcESaIcEED2Ev(ptr noundef nonnull align 8 dereferenceable(32) %0) unnamed_addr #4 align 2 personality ptr @__gxx_personality_v0 {
  %2 = alloca ptr, align 8
  store ptr %0, ptr %2, align 8, !tbaa !102
  %3 = load ptr, ptr %2, align 8
  invoke void @_ZNSt7__cxx1112basic_stringIcSt11char_traitsIcESaIcEE10_M_disposeEv(ptr noundef nonnull align 8 dereferenceable(32) %3)
          to label %4 unwind label %6

4:                                                ; preds = %1
  %5 = getelementptr inbounds nuw %"class.std::__cxx11::basic_string", ptr %3, i32 0, i32 0
  call void @_ZNSt15__new_allocatorIcED2Ev(ptr noundef nonnull align 8 dereferenceable(8) %5) #3
  ret void

6:                                                ; preds = %1
  %7 = landingpad { ptr, i32 }
          catch ptr null
  %8 = extractvalue { ptr, i32 } %7, 0
  call void @__clang_call_terminate(ptr %8) #23
  unreachable
}

; Function Attrs: mustprogress uwtable
define linkonce_odr void @_ZN5arrow6Status8FromArgsIJRA17_KcRlRA8_S2_EEES0_NS_10StatusCodeEDpOT_(ptr dead_on_unwind noalias writable sret(%"class.arrow::Status") align 8 %0, i8 noundef signext %1, ptr noundef nonnull align 1 dereferenceable(17) %2, ptr noundef nonnull align 8 dereferenceable(8) %3, ptr noundef nonnull align 1 dereferenceable(8) %4) #5 comdat align 2 personality ptr @__gxx_personality_v0 {
  %6 = alloca ptr, align 8
  %7 = alloca i8, align 1
  %8 = alloca ptr, align 8
  %9 = alloca ptr, align 8
  %10 = alloca ptr, align 8
  %11 = alloca %"class.std::__cxx11::basic_string", align 8
  %12 = alloca ptr, align 8
  %13 = alloca i32, align 4
  store ptr %0, ptr %6, align 8
  store i8 %1, ptr %7, align 1, !tbaa !369
  store ptr %2, ptr %8, align 8, !tbaa !10
  store ptr %3, ptr %9, align 8, !tbaa !191
  store ptr %4, ptr %10, align 8, !tbaa !10
  %14 = load i8, ptr %7, align 1, !tbaa !369
  call void @llvm.lifetime.start.p0(i64 32, ptr %11) #3
  %15 = load ptr, ptr %8, align 8, !tbaa !10
  %16 = load ptr, ptr %9, align 8, !tbaa !191
  %17 = load ptr, ptr %10, align 8, !tbaa !10
  call void @_ZN5arrow4util13StringBuilderIJRA17_KcRlRA8_S2_EEENSt7__cxx1112basic_stringIcSt11char_traitsIcESaIcEEEDpOT_(ptr dead_on_unwind writable sret(%"class.std::__cxx11::basic_string") align 8 %11, ptr noundef nonnull align 1 dereferenceable(17) %15, ptr noundef nonnull align 8 dereferenceable(8) %16, ptr noundef nonnull align 1 dereferenceable(8) %17)
  invoke void @_ZN5arrow6StatusC1ENS_10StatusCodeERKNSt7__cxx1112basic_stringIcSt11char_traitsIcESaIcEEE(ptr noundef nonnull align 8 dereferenceable(8) %0, i8 noundef signext %14, ptr noundef nonnull align 8 dereferenceable(32) %11)
          to label %18 unwind label %19

18:                                               ; preds = %5
  call void @_ZNSt7__cxx1112basic_stringIcSt11char_traitsIcESaIcEED2Ev(ptr noundef nonnull align 8 dereferenceable(32) %11) #3
  call void @llvm.lifetime.end.p0(i64 32, ptr %11) #3
  ret void

19:                                               ; preds = %5
  %20 = landingpad { ptr, i32 }
          cleanup
  %21 = extractvalue { ptr, i32 } %20, 0
  store ptr %21, ptr %12, align 8
  %22 = extractvalue { ptr, i32 } %20, 1
  store i32 %22, ptr %13, align 4
  call void @_ZNSt7__cxx1112basic_stringIcSt11char_traitsIcESaIcEED2Ev(ptr noundef nonnull align 8 dereferenceable(32) %11) #3
  call void @llvm.lifetime.end.p0(i64 32, ptr %11) #3
  br label %23

23:                                               ; preds = %19
  %24 = load ptr, ptr %12, align 8
  %25 = load i32, ptr %13, align 4
  %26 = insertvalue { ptr, i32 } poison, ptr %24, 0
  %27 = insertvalue { ptr, i32 } %26, i32 %25, 1
  resume { ptr, i32 } %27
}

; Function Attrs: mustprogress nounwind uwtable
define linkonce_odr void @_ZN5arrow6StatusC2Ev(ptr noundef nonnull align 8 dereferenceable(8) %0) unnamed_addr #4 comdat align 2 {
  %2 = alloca ptr, align 8
  store ptr %0, ptr %2, align 8, !tbaa !43
  %3 = load ptr, ptr %2, align 8
  %4 = getelementptr inbounds nuw %"class.arrow::Status", ptr %3, i32 0, i32 0
  store ptr null, ptr %4, align 8, !tbaa !45
  ret void
}

; Function Attrs: mustprogress uwtable
define linkonce_odr void @_ZN5arrow6Status11OutOfMemoryIJRA17_KcRlRA8_S2_EEES0_DpOT_(ptr dead_on_unwind noalias writable sret(%"class.arrow::Status") align 8 %0, ptr noundef nonnull align 1 dereferenceable(17) %1, ptr noundef nonnull align 8 dereferenceable(8) %2, ptr noundef nonnull align 1 dereferenceable(8) %3) #5 comdat align 2 {
  %5 = alloca ptr, align 8
  %6 = alloca ptr, align 8
  %7 = alloca ptr, align 8
  %8 = alloca ptr, align 8
  store ptr %0, ptr %5, align 8
  store ptr %1, ptr %6, align 8, !tbaa !10
  store ptr %2, ptr %7, align 8, !tbaa !191
  store ptr %3, ptr %8, align 8, !tbaa !10
  %9 = load ptr, ptr %6, align 8, !tbaa !10
  %10 = load ptr, ptr %7, align 8, !tbaa !191
  %11 = load ptr, ptr %8, align 8, !tbaa !10
  call void @_ZN5arrow6Status8FromArgsIJRA17_KcRlRA8_S2_EEES0_NS_10StatusCodeEDpOT_(ptr dead_on_unwind writable sret(%"class.arrow::Status") align 8 %0, i8 noundef signext 1, ptr noundef nonnull align 1 dereferenceable(17) %9, ptr noundef nonnull align 8 dereferenceable(8) %10, ptr noundef nonnull align 1 dereferenceable(8) %11)
  ret void
}

; Function Attrs: mustprogress nounwind uwtable
define linkonce_odr void @_ZN5arrow6Status2OKEv(ptr dead_on_unwind noalias writable sret(%"class.arrow::Status") align 8 %0) #4 comdat align 2 {
  %2 = alloca ptr, align 8
  store ptr %0, ptr %2, align 8
  call void @_ZN5arrow6StatusC2Ev(ptr noundef nonnull align 8 dereferenceable(8) %0) #3
  ret void
}

; Function Attrs: mustprogress nounwind uwtable
define internal void @_ZN5arrow12_GLOBAL__N_117MimallocAllocator17DeallocateAlignedEPhll(ptr noundef %0, i64 noundef %1, i64 noundef %2) #4 align 2 {
  %4 = alloca ptr, align 8
  %5 = alloca i64, align 8
  %6 = alloca i64, align 8
  store ptr %0, ptr %4, align 8, !tbaa !10
  store i64 %1, ptr %5, align 8, !tbaa !68
  store i64 %2, ptr %6, align 8, !tbaa !68
  %7 = load ptr, ptr %4, align 8, !tbaa !10
  %8 = icmp eq ptr %7, @_ZN5arrow11memory_pool8internal14zero_size_areaE
  br i1 %8, label %9, label %19

9:                                                ; preds = %3
  br label %10

10:                                               ; preds = %11, %9
  br i1 false, label %11, label %12

11:                                               ; preds = %10
  br label %10, !llvm.loop !513

12:                                               ; preds = %10
  br label %13

13:                                               ; preds = %14, %12
  br i1 false, label %14, label %15

14:                                               ; preds = %13
  br label %13, !llvm.loop !514

15:                                               ; preds = %13
  br label %16

16:                                               ; preds = %17, %15
  br i1 false, label %17, label %18

17:                                               ; preds = %16
  br label %16, !llvm.loop !515

18:                                               ; preds = %16
  br label %21

19:                                               ; preds = %3
  %20 = load ptr, ptr %4, align 8, !tbaa !10
  call void @mi_free(ptr noundef %20) #3
  br label %21

21:                                               ; preds = %19, %18
  ret void
}

; Function Attrs: mustprogress uwtable
define internal void @_ZN5arrow12_GLOBAL__N_117MimallocAllocator17ReallocateAlignedElllPPh(ptr dead_on_unwind noalias writable sret(%"class.arrow::Status") align 8 %0, i64 noundef %1, i64 noundef %2, i64 noundef %3, ptr noundef %4) #5 align 2 {
  %6 = alloca ptr, align 8
  %7 = alloca i64, align 8
  %8 = alloca i64, align 8
  %9 = alloca i64, align 8
  %10 = alloca ptr, align 8
  %11 = alloca ptr, align 8
  %12 = alloca i32, align 4
  store ptr %0, ptr %6, align 8
  store i64 %1, ptr %7, align 8, !tbaa !68
  store i64 %2, ptr %8, align 8, !tbaa !68
  store i64 %3, ptr %9, align 8, !tbaa !68
  store ptr %4, ptr %10, align 8, !tbaa !69
  call void @llvm.lifetime.start.p0(i64 8, ptr %11) #3
  %13 = load ptr, ptr %10, align 8, !tbaa !69
  %14 = load ptr, ptr %13, align 8, !tbaa !10
  store ptr %14, ptr %11, align 8, !tbaa !10
  %15 = load ptr, ptr %11, align 8, !tbaa !10
  %16 = icmp eq ptr %15, @_ZN5arrow11memory_pool8internal14zero_size_areaE
  br i1 %16, label %17, label %30

17:                                               ; preds = %5
  br label %18

18:                                               ; preds = %19, %17
  br i1 false, label %19, label %20

19:                                               ; preds = %18
  br label %18, !llvm.loop !510

20:                                               ; preds = %18
  br label %21

21:                                               ; preds = %22, %20
  br i1 false, label %22, label %23

22:                                               ; preds = %21
  br label %21, !llvm.loop !511

23:                                               ; preds = %21
  br label %24

24:                                               ; preds = %25, %23
  br i1 false, label %25, label %26

25:                                               ; preds = %24
  br label %24, !llvm.loop !512

26:                                               ; preds = %24
  %27 = load i64, ptr %8, align 8, !tbaa !68
  %28 = load i64, ptr %9, align 8, !tbaa !68
  %29 = load ptr, ptr %10, align 8, !tbaa !69
  call void @_ZN5arrow12_GLOBAL__N_117MimallocAllocator15AllocateAlignedEllPPh(ptr dead_on_unwind writable sret(%"class.arrow::Status") align 8 %0, i64 noundef %27, i64 noundef %28, ptr noundef %29)
  store i32 1, ptr %12, align 4
  br label %51

30:                                               ; preds = %5
  %31 = load i64, ptr %8, align 8, !tbaa !68
  %32 = icmp eq i64 %31, 0
  br i1 %32, label %33, label %38

33:                                               ; preds = %30
  %34 = load ptr, ptr %11, align 8, !tbaa !10
  %35 = load i64, ptr %7, align 8, !tbaa !68
  %36 = load i64, ptr %9, align 8, !tbaa !68
  call void @_ZN5arrow12_GLOBAL__N_117MimallocAllocator17DeallocateAlignedEPhll(ptr noundef %34, i64 noundef %35, i64 noundef %36)
  %37 = load ptr, ptr %10, align 8, !tbaa !69
  store ptr @_ZN5arrow11memory_pool8internal14zero_size_areaE, ptr %37, align 8, !tbaa !10
  call void @_ZN5arrow6Status2OKEv(ptr dead_on_unwind writable sret(%"class.arrow::Status") align 8 %0)
  store i32 1, ptr %12, align 4
  br label %51

38:                                               ; preds = %30
  %39 = load ptr, ptr %11, align 8, !tbaa !10
  %40 = load i64, ptr %8, align 8, !tbaa !68
  %41 = load i64, ptr %9, align 8, !tbaa !68
  %42 = call ptr @mi_realloc_aligned(ptr noundef %39, i64 noundef %40, i64 noundef %41) #3
  %43 = load ptr, ptr %10, align 8, !tbaa !69
  store ptr %42, ptr %43, align 8, !tbaa !10
  %44 = load ptr, ptr %10, align 8, !tbaa !69
  %45 = load ptr, ptr %44, align 8, !tbaa !10
  %46 = icmp eq ptr %45, null
  br i1 %46, label %47, label %50

47:                                               ; preds = %38
  %48 = load ptr, ptr %11, align 8, !tbaa !10
  %49 = load ptr, ptr %10, align 8, !tbaa !69
  store ptr %48, ptr %49, align 8, !tbaa !10
  call void @_ZN5arrow6Status11OutOfMemoryIJRA17_KcRlRA8_S2_EEES0_DpOT_(ptr dead_on_unwind writable sret(%"class.arrow::Status") align 8 %0, ptr noundef nonnull align 1 dereferenceable(17) @.str.55, ptr noundef nonnull align 8 dereferenceable(8) %8, ptr noundef nonnull align 1 dereferenceable(8) @.str.43)
  store i32 1, ptr %12, align 4
  br label %51

50:                                               ; preds = %38
  call void @_ZN5arrow6Status2OKEv(ptr dead_on_unwind writable sret(%"class.arrow::Status") align 8 %0)
  store i32 1, ptr %12, align 4
  br label %51

51:                                               ; preds = %50, %47, %33, %26
  call void @llvm.lifetime.end.p0(i64 8, ptr %11) #3
  ret void
}