; Function Attrs: mustprogress uwtable
define internal fastcc void @_ZN5arrow12_GLOBAL__N_117MimallocAllocator17ReallocateAlignedElllPPh(ptr dead_on_unwind noalias nonnull writable align 8 %0, i64 noundef %1, i64 noundef %2, ptr noundef captures(none) %3) unnamed_addr #4 align 2 personality ptr @__gxx_personality_v0 {
  %5 = alloca %"class.std::__cxx11::basic_string", align 8
  %6 = alloca i64, align 8
  store i64 %1, ptr %6, align 8, !tbaa !108
  %7 = load ptr, ptr %3, align 8, !tbaa !106
  %8 = icmp eq ptr %7, @_ZN5arrow11memory_pool8internal14zero_size_areaE
  br i1 %8, label %9, label %10

9:                                                ; preds = %4
  tail call fastcc void @_ZN5arrow12_GLOBAL__N_117MimallocAllocator15AllocateAlignedEllPPh(ptr dead_on_unwind noalias writable align 8 %0, i64 noundef %1, i64 noundef %2, ptr noundef nonnull %3)
  br label %36

10:                                               ; preds = %4
  %11 = icmp eq i64 %1, 0
  br i1 %11, label %_ZN5arrow12_GLOBAL__N_117MimallocAllocator17DeallocateAlignedEPhll.exit, label %12

_ZN5arrow12_GLOBAL__N_117MimallocAllocator17DeallocateAlignedEPhll.exit: ; preds = %10
  tail call void @mi_free(ptr noundef %7) #32
  store ptr @_ZN5arrow11memory_pool8internal14zero_size_areaE, ptr %3, align 8, !tbaa !106
  store ptr null, ptr %0, align 8, !tbaa !21, !alias.scope !416
  br label %36

12:                                               ; preds = %10
  %13 = tail call ptr @mi_realloc_aligned(ptr noundef %7, i64 noundef %1, i64 noundef %2) #32
  store ptr %13, ptr %3, align 8, !tbaa !106
  %14 = icmp eq ptr %13, null
  br i1 %14, label %15, label %35

15:                                               ; preds = %12
  store ptr %7, ptr %3, align 8, !tbaa !106
  call void @llvm.lifetime.start.p0(i64 32, ptr nonnull %5) #32, !noalias !419
  call void @_ZN5arrow4util13StringBuilderIJRA17_KcRlRA8_S2_EEENSt7__cxx1112basic_stringIcSt11char_traitsIcESaIcEEEDpOT_(ptr dead_on_unwind nonnull writable sret(%"class.std::__cxx11::basic_string") align 8 %5, ptr noundef nonnull align 1 dereferenceable(17) @.str.55, ptr noundef nonnull align 8 dereferenceable(8) %6, ptr noundef nonnull align 1 dereferenceable(8) @.str.43), !noalias !419
  invoke void @_ZN5arrow6StatusC1ENS_10StatusCodeERKNSt7__cxx1112basic_stringIcSt11char_traitsIcESaIcEEE(ptr noundef nonnull align 8 dereferenceable(8) %0, i8 noundef signext 1, ptr noundef nonnull align 8 dereferenceable(32) %5)
          to label %16 unwind label %25

16:                                               ; preds = %15
  %17 = load ptr, ptr %5, align 8, !tbaa !41, !noalias !419
  %18 = getelementptr inbounds nuw i8, ptr %5, i64 16
  %19 = icmp eq ptr %17, %18
  br i1 %19, label %_ZNKSt7__cxx1112basic_stringIcSt11char_traitsIcESaIcEE11_M_is_localEv.exit.thread.i.i.i.i, label %_ZNKSt7__cxx1112basic_stringIcSt11char_traitsIcESaIcEE11_M_is_localEv.exit.i.i.i.i

_ZNKSt7__cxx1112basic_stringIcSt11char_traitsIcESaIcEE11_M_is_localEv.exit.thread.i.i.i.i: ; preds = %16
  %20 = getelementptr inbounds nuw i8, ptr %5, i64 8
  %21 = load i64, ptr %20, align 8, !tbaa !42, !noalias !419
  %22 = icmp ult i64 %21, 16
  call void @llvm.assume(i1 %22)
  br label %_ZN5arrow6Status11OutOfMemoryIJRA17_KcRlRA8_S2_EEES0_DpOT_.exit

_ZNKSt7__cxx1112basic_stringIcSt11char_traitsIcESaIcEE11_M_is_localEv.exit.i.i.i.i: ; preds = %16
  %23 = load i64, ptr %18, align 8, !tbaa !43, !noalias !419
  %24 = add i64 %23, 1
  call void @_ZdlPvm(ptr noundef %17, i64 noundef %24) #34
  br label %_ZN5arrow6Status11OutOfMemoryIJRA17_KcRlRA8_S2_EEES0_DpOT_.exit

25:                                               ; preds = %15
  %26 = landingpad { ptr, i32 }
          cleanup
  %27 = load ptr, ptr %5, align 8, !tbaa !41, !noalias !419
  %28 = getelementptr inbounds nuw i8, ptr %5, i64 16
  %29 = icmp eq ptr %27, %28
  br i1 %29, label %_ZNKSt7__cxx1112basic_stringIcSt11char_traitsIcESaIcEE11_M_is_localEv.exit.thread.i.i6.i.i, label %_ZNKSt7__cxx1112basic_stringIcSt11char_traitsIcESaIcEE11_M_is_localEv.exit.i.i5.i.i

_ZNKSt7__cxx1112basic_stringIcSt11char_traitsIcESaIcEE11_M_is_localEv.exit.thread.i.i6.i.i: ; preds = %25
  %30 = getelementptr inbounds nuw i8, ptr %5, i64 8
  %31 = load i64, ptr %30, align 8, !tbaa !42, !noalias !419
  %32 = icmp ult i64 %31, 16
  call void @llvm.assume(i1 %32)
  br label %_ZNSt7__cxx1112basic_stringIcSt11char_traitsIcESaIcEED2Ev.exit7.i.i

_ZNKSt7__cxx1112basic_stringIcSt11char_traitsIcESaIcEE11_M_is_localEv.exit.i.i5.i.i: ; preds = %25
  %33 = load i64, ptr %28, align 8, !tbaa !43, !noalias !419
  %34 = add i64 %33, 1
  call void @_ZdlPvm(ptr noundef %27, i64 noundef %34) #34
  br label %_ZNSt7__cxx1112basic_stringIcSt11char_traitsIcESaIcEED2Ev.exit7.i.i

_ZNSt7__cxx1112basic_stringIcSt11char_traitsIcESaIcEED2Ev.exit7.i.i: ; preds = %_ZNKSt7__cxx1112basic_stringIcSt11char_traitsIcESaIcEE11_M_is_localEv.exit.i.i5.i.i, %_ZNKSt7__cxx1112basic_stringIcSt11char_traitsIcESaIcEE11_M_is_localEv.exit.thread.i.i6.i.i
  call void @llvm.lifetime.end.p0(i64 32, ptr nonnull %5) #32, !noalias !419
  resume { ptr, i32 } %26

_ZN5arrow6Status11OutOfMemoryIJRA17_KcRlRA8_S2_EEES0_DpOT_.exit: ; preds = %_ZNKSt7__cxx1112basic_stringIcSt11char_traitsIcESaIcEE11_M_is_localEv.exit.thread.i.i.i.i, %_ZNKSt7__cxx1112basic_stringIcSt11char_traitsIcESaIcEE11_M_is_localEv.exit.i.i.i.i
  call void @llvm.lifetime.end.p0(i64 32, ptr nonnull %5) #32, !noalias !419
  br label %36

35:                                               ; preds = %12
  store ptr null, ptr %0, align 8, !tbaa !21, !alias.scope !424
  br label %36

36:                                               ; preds = %35, %_ZN5arrow6Status11OutOfMemoryIJRA17_KcRlRA8_S2_EEES0_DpOT_.exit, %_ZN5arrow12_GLOBAL__N_117MimallocAllocator17DeallocateAlignedEPhll.exit, %9
  ret void
}